target datalayout = "e-m:e-p270:32:32-p271:32:32-p272:64:64-i64:64-i128:128-f80:128-n8:16:32:64-S128"
target triple = "x86_64-pc-linux-gnu"

%struct.quic_lcidm_st = type { ptr, ptr, ptr, i64 }
%struct.quic_lcidm_conn_st = type { i64, ptr, ptr, ptr, i64, i8 }

@.str = private unnamed_addr constant [33 x i8] c"../openssl/ssl/quic/quic_lcidm.c\00", align 1

; Function Attrs: inlinehint nounwind uwtable
define internal void @lh_QUIC_LCID_free(ptr noundef %0) #3 {
  %2 = alloca ptr, align 8
  store ptr %0, ptr %2, align 8, !tbaa !30
  %3 = load ptr, ptr %2, align 8, !tbaa !30
  call void @OPENSSL_LH_free(ptr noundef %3)
  ret void
}

; Function Attrs: inlinehint nounwind uwtable
define internal ptr @lh_QUIC_LCIDM_CONN_delete(ptr noundef %0, ptr noundef %1) #3 {
  %3 = alloca ptr, align 8
  %4 = alloca ptr, align 8
  store ptr %0, ptr %3, align 8, !tbaa !31
  store ptr %1, ptr %4, align 8, !tbaa !27
  %5 = load ptr, ptr %3, align 8, !tbaa !31
  %6 = load ptr, ptr %4, align 8, !tbaa !27
  %7 = call ptr @OPENSSL_LH_delete(ptr noundef %5, ptr noundef %6)
  ret ptr %7
}

; Function Attrs: inlinehint nounwind uwtable
define internal void @lh_QUIC_LCID_doall_arg(ptr noundef %0, ptr noundef %1, ptr noundef %2) #3 {
  %4 = alloca ptr, align 8
  %5 = alloca ptr, align 8
  %6 = alloca ptr, align 8
  store ptr %0, ptr %4, align 8, !tbaa !30
  store ptr %1, ptr %5, align 8, !tbaa !19
  store ptr %2, ptr %6, align 8, !tbaa !19
  %7 = load ptr, ptr %4, align 8, !tbaa !30
  %8 = load ptr, ptr %5, align 8, !tbaa !19
  %9 = load ptr, ptr %6, align 8, !tbaa !19
  call void @OPENSSL_LH_doall_arg(ptr noundef %7, ptr noundef %8, ptr noundef %9)
  ret void
}

; Function Attrs: inlinehint nounwind uwtable
define internal void @lh_QUIC_LCID_set_down_load(ptr noundef %0, i64 noundef %1) #3 {
  %3 = alloca ptr, align 8
  %4 = alloca i64, align 8
  store ptr %0, ptr %3, align 8, !tbaa !30
  store i64 %1, ptr %4, align 8, !tbaa !8
  %5 = load ptr, ptr %3, align 8, !tbaa !30
  %6 = load i64, ptr %4, align 8, !tbaa !8
  call void @OPENSSL_LH_set_down_load(ptr noundef %5, i64 noundef %6)
  ret void
}

; Function Attrs: nounwind uwtable
define internal void @lcidm_delete_conn(ptr noundef %0, ptr noundef %1) #0 {
  %3 = alloca ptr, align 8
  %4 = alloca ptr, align 8
  store ptr %0, ptr %3, align 8, !tbaa !10
  store ptr %1, ptr %4, align 8, !tbaa !27
  %5 = load ptr, ptr %4, align 8, !tbaa !27
  %6 = getelementptr inbounds nuw %struct.quic_lcidm_conn_st, ptr %5, i32 0, i32 1
  %7 = load ptr, ptr %6, align 8, !tbaa !40
  call void @lh_QUIC_LCID_set_down_load(ptr noundef %7, i64 noundef 0)
  %8 = load ptr, ptr %4, align 8, !tbaa !27
  %9 = getelementptr inbounds nuw %struct.quic_lcidm_conn_st, ptr %8, i32 0, i32 1
  %10 = load ptr, ptr %9, align 8, !tbaa !40
  %11 = load ptr, ptr %3, align 8, !tbaa !10
  call void @lh_QUIC_LCID_doall_arg(ptr noundef %10, ptr noundef @lcidm_delete_conn_lcid_, ptr noundef %11)
  %12 = load ptr, ptr %3, align 8, !tbaa !10
  %13 = getelementptr inbounds nuw %struct.quic_lcidm_st, ptr %12, i32 0, i32 2
  %14 = load ptr, ptr %13, align 8, !tbaa !16
  %15 = load ptr, ptr %4, align 8, !tbaa !27
  %16 = call ptr @lh_QUIC_LCIDM_CONN_delete(ptr noundef %14, ptr noundef %15)
  %17 = load ptr, ptr %4, align 8, !tbaa !27
  %18 = getelementptr inbounds nuw %struct.quic_lcidm_conn_st, ptr %17, i32 0, i32 1
  %19 = load ptr, ptr %18, align 8, !tbaa !40
  call void @lh_QUIC_LCID_free(ptr noundef %19)
  %20 = load ptr, ptr %4, align 8, !tbaa !27
  call void @CRYPTO_free(ptr noundef %20, ptr noundef @.str, i32 noundef 238)
  ret void
}

; Function Attrs: nounwind uwtable
define internal void @lcidm_delete_conn_(ptr noundef %0, ptr noundef %1) #0 {
  %3 = alloca ptr, align 8
  %4 = alloca ptr, align 8
  store ptr %0, ptr %3, align 8, !tbaa !27
  store ptr %1, ptr %4, align 8, !tbaa !19
  %5 = load ptr, ptr %4, align 8, !tbaa !19
  %6 = load ptr, ptr %3, align 8, !tbaa !27
  call void @lcidm_delete_conn(ptr noundef %5, ptr noundef %6)
  ret void
}