; Function Attrs: nounwind uwtable
define internal void @lcidm_delete_conn_(ptr noundef %0, ptr noundef %1) #0 {
  %3 = getelementptr inbounds nuw i8, ptr %0, i64 8
  %4 = load ptr, ptr %3, align 8, !tbaa !27
  tail call void @OPENSSL_LH_set_down_load(ptr noundef %4, i64 noundef 0) #11
  %5 = load ptr, ptr %3, align 8, !tbaa !27
  tail call void @OPENSSL_LH_doall_arg(ptr noundef %5, ptr noundef nonnull @lcidm_delete_conn_lcid_, ptr noundef %1) #11
  %6 = getelementptr inbounds nuw i8, ptr %1, i64 16
  %7 = load ptr, ptr %6, align 8, !tbaa !12
  %8 = tail call ptr @OPENSSL_LH_delete(ptr noundef %7, ptr noundef %0) #11
  %9 = load ptr, ptr %3, align 8, !tbaa !27
  tail call void @OPENSSL_LH_free(ptr noundef %9) #11
  tail call void @CRYPTO_free(ptr noundef %0, ptr noundef nonnull @.str, i32 noundef 238) #11
  ret void
}